
spi_demo.riscv:     file format elf32-littleriscv


Disassembly of section .text:

40000000 <main>:
40000000:	020007b7          	lui	x15,0x2000
40000004:	20010737          	lui	x14,0x20010
40000008:	10678793          	addi	x15,x15,262 # 2000106 <main-0x3dfffefa>
4000000c:	00f72023          	sw	x15,0(x14) # 20010000 <main-0x1fff0000>
40000010:	020107b7          	lui	x15,0x2010
40000014:	10578793          	addi	x15,x15,261 # 2010105 <main-0x3dfefefb>
40000018:	00f72023          	sw	x15,0(x14)
4000001c:	200106b7          	lui	x13,0x20010
40000020:	06300713          	addi	x14,x0,99
40000024:	00f6a023          	sw	x15,0(x13) # 20010000 <main-0x1fff0000>
40000028:	fff70713          	addi	x14,x14,-1
4000002c:	fe071ce3          	bne	x14,x0,40000024 <main+0x24>
40000030:	aaaab7b7          	lui	x15,0xaaaab
40000034:	aaa78793          	addi	x15,x15,-1366 # aaaaaaaa <_end+0x6aaaa386>
40000038:	00f6a423          	sw	x15,8(x13)
4000003c:	bc0007b7          	lui	x15,0xbc000
40000040:	fff78793          	addi	x15,x15,-1 # bbffffff <_end+0x7bfff8db>
40000044:	00f6a623          	sw	x15,12(x13)
40000048:	deadc7b7          	lui	x15,0xdeadc
4000004c:	eef78793          	addi	x15,x15,-273 # deadbeef <_end+0x9eadb7cb>
40000050:	00f6a823          	sw	x15,16(x13)
40000054:	ffff27b7          	lui	x15,0xffff2
40000058:	fff78793          	addi	x15,x15,-1 # ffff1fff <_end+0xbfff18db>
4000005c:	00f6aa23          	sw	x15,20(x13)
40000060:	3aaab7b7          	lui	x15,0x3aaab
40000064:	aaa78793          	addi	x15,x15,-1366 # 3aaaaaaa <main-0x5555556>
40000068:	00f6ac23          	sw	x15,24(x13)
4000006c:	600007b7          	lui	x15,0x60000
40000070:	ff778793          	addi	x15,x15,-9 # 5ffffff7 <_end+0x1ffff8d3>
40000074:	00f6ae23          	sw	x15,28(x13)
40000078:	4aaab7b7          	lui	x15,0x4aaab
4000007c:	aa678793          	addi	x15,x15,-1370 # 4aaaaaa6 <_end+0xaaaa382>
40000080:	02f6a023          	sw	x15,32(x13)
40000084:	14e2a7b7          	lui	x15,0x14e2a
40000088:	65778793          	addi	x15,x15,1623 # 14e2a657 <main-0x2b1d59a9>
4000008c:	02f6a223          	sw	x15,36(x13)
40000090:	0b000793          	addi	x15,x0,176
40000094:	00f6a223          	sw	x15,4(x13)
40000098:	020407b7          	lui	x15,0x2040
4000009c:	50278793          	addi	x15,x15,1282 # 2040502 <main-0x3dfbfafe>
400000a0:	00f6a023          	sw	x15,0(x13)
400000a4:	020107b7          	lui	x15,0x2010
400000a8:	10578793          	addi	x15,x15,261 # 2010105 <main-0x3dfefefb>
400000ac:	00f6a023          	sw	x15,0(x13)
400000b0:	0086a703          	lw	x14,8(x13)
400000b4:	00070a63          	beq	x14,x0,400000c8 <main+0xc8>
400000b8:	20010737          	lui	x14,0x20010
400000bc:	00f72023          	sw	x15,0(x14) # 20010000 <main-0x1fff0000>
400000c0:	00872683          	lw	x13,8(x14)
400000c4:	fe069ce3          	bne	x13,x0,400000bc <main+0xbc>
400000c8:	020107b7          	lui	x15,0x2010
400000cc:	20010737          	lui	x14,0x20010
400000d0:	10578793          	addi	x15,x15,261 # 2010105 <main-0x3dfefefb>
400000d4:	00f72023          	sw	x15,0(x14) # 20010000 <main-0x1fff0000>
400000d8:	200106b7          	lui	x13,0x20010
400000dc:	06300713          	addi	x14,x0,99
400000e0:	00f6a023          	sw	x15,0(x13) # 20010000 <main-0x1fff0000>
400000e4:	fff70713          	addi	x14,x14,-1
400000e8:	fe071ce3          	bne	x14,x0,400000e0 <main+0xe0>
400000ec:	020407b7          	lui	x15,0x2040
400000f0:	10378793          	addi	x15,x15,259 # 2040103 <main-0x3dfbfefd>
400000f4:	00f6a023          	sw	x15,0(x13)
400000f8:	06300713          	addi	x14,x0,99
400000fc:	200106b7          	lui	x13,0x20010
40000100:	00f6a023          	sw	x15,0(x13) # 20010000 <main-0x1fff0000>
40000104:	fff70713          	addi	x14,x14,-1
40000108:	fe071ce3          	bne	x14,x0,40000100 <main+0x100>
4000010c:	0000006f          	jal	x0,4000010c <main+0x10c>

40000110 <uart_txfull>:
40000110:	200007b7          	lui	x15,0x20000
40000114:	0047a503          	lw	x10,4(x15) # 20000004 <main-0x1ffffffc>
40000118:	00157513          	andi	x10,x10,1
4000011c:	00008067          	jalr	x0,0(x1)

40000120 <zputchar>:
40000120:	20000737          	lui	x14,0x20000
40000124:	00472783          	lw	x15,4(x14) # 20000004 <main-0x1ffffffc>
40000128:	0017f793          	andi	x15,x15,1
4000012c:	fe079ce3          	bne	x15,x0,40000124 <zputchar+0x4>
40000130:	00a72623          	sw	x10,12(x14)
40000134:	00008067          	jalr	x0,0(x1)

40000138 <print>:
40000138:	00054683          	lbu	x13,0(x10)
4000013c:	02068263          	beq	x13,x0,40000160 <print+0x28>
40000140:	20000737          	lui	x14,0x20000
40000144:	00150513          	addi	x10,x10,1
40000148:	00472783          	lw	x15,4(x14) # 20000004 <main-0x1ffffffc>
4000014c:	0017f793          	andi	x15,x15,1
40000150:	fe079ce3          	bne	x15,x0,40000148 <print+0x10>
40000154:	00d72623          	sw	x13,12(x14)
40000158:	00054683          	lbu	x13,0(x10)
4000015c:	fe0694e3          	bne	x13,x0,40000144 <print+0xc>
40000160:	00008067          	jalr	x0,0(x1)

40000164 <tekno_printf>:
40000164:	fc010113          	addi	x2,x2,-64
40000168:	00054303          	lbu	x6,0(x10)
4000016c:	02f12a23          	sw	x15,52(x2)
40000170:	02410793          	addi	x15,x2,36
40000174:	02b12223          	sw	x11,36(x2)
40000178:	02c12423          	sw	x12,40(x2)
4000017c:	02d12623          	sw	x13,44(x2)
40000180:	02e12823          	sw	x14,48(x2)
40000184:	03012c23          	sw	x16,56(x2)
40000188:	03112e23          	sw	x17,60(x2)
4000018c:	00f12423          	sw	x15,8(x2)
40000190:	06030a63          	beq	x6,x0,40000204 <tekno_printf+0xa0>
40000194:	00150613          	addi	x12,x10,1
40000198:	00000693          	addi	x13,x0,0
4000019c:	00000e13          	addi	x28,x0,0
400001a0:	00000793          	addi	x15,x0,0
400001a4:	02500593          	addi	x11,x0,37
400001a8:	20000737          	lui	x14,0x20000
400001ac:	00a00893          	addi	x17,x0,10
400001b0:	04800813          	addi	x16,x0,72
400001b4:	00000517          	auipc	x10,0x0
400001b8:	44850513          	addi	x10,x10,1096 # 400005fc <strlen+0x28>
400001bc:	04078863          	beq	x15,x0,4000020c <tekno_printf+0xa8>
400001c0:	fd030313          	addi	x6,x6,-48
400001c4:	0ff37313          	andi	x6,x6,255
400001c8:	00686c63          	bltu	x16,x6,400001e0 <tekno_printf+0x7c>
400001cc:	00231313          	slli	x6,x6,0x2
400001d0:	00a30333          	add	x6,x6,x10
400001d4:	00032303          	lw	x6,0(x6)
400001d8:	00a30333          	add	x6,x6,x10
400001dc:	00030067          	jalr	x0,0(x6)
400001e0:	00472783          	lw	x15,4(x14) # 20000004 <main-0x1ffffffc>
400001e4:	0017f793          	andi	x15,x15,1
400001e8:	fe079ce3          	bne	x15,x0,400001e0 <tekno_printf+0x7c>
400001ec:	00b72623          	sw	x11,12(x14)
400001f0:	00000693          	addi	x13,x0,0
400001f4:	00000e13          	addi	x28,x0,0
400001f8:	00064303          	lbu	x6,0(x12)
400001fc:	00160613          	addi	x12,x12,1
40000200:	fa031ee3          	bne	x6,x0,400001bc <tekno_printf+0x58>
40000204:	04010113          	addi	x2,x2,64
40000208:	00008067          	jalr	x0,0(x1)
4000020c:	00100793          	addi	x15,x0,1
40000210:	feb304e3          	beq	x6,x11,400001f8 <tekno_printf+0x94>
40000214:	00472783          	lw	x15,4(x14)
40000218:	0017f793          	andi	x15,x15,1
4000021c:	fe079ce3          	bne	x15,x0,40000214 <tekno_printf+0xb0>
40000220:	00672623          	sw	x6,12(x14)
40000224:	fd131ae3          	bne	x6,x17,400001f8 <tekno_printf+0x94>
40000228:	20000337          	lui	x6,0x20000
4000022c:	00432783          	lw	x15,4(x6) # 20000004 <main-0x1ffffffc>
40000230:	0017f793          	andi	x15,x15,1
40000234:	fe079ce3          	bne	x15,x0,4000022c <tekno_printf+0xc8>
40000238:	00d00e93          	addi	x29,x0,13
4000023c:	01d32623          	sw	x29,12(x6)
40000240:	fb9ff06f          	jal	x0,400001f8 <tekno_printf+0x94>
40000244:	00812783          	lw	x15,8(x2)
40000248:	00478e93          	addi	x29,x15,4
4000024c:	1e0e0263          	beq	x28,x0,40000430 <tekno_printf+0x2cc>
40000250:	0007a283          	lw	x5,0(x15)
40000254:	01d12423          	sw	x29,8(x2)
40000258:	01c00313          	addi	x6,x0,28
4000025c:	00900f93          	addi	x31,x0,9
40000260:	200006b7          	lui	x13,0x20000
40000264:	ffc00f13          	addi	x30,x0,-4
40000268:	0062d7b3          	srl	x15,x5,x6
4000026c:	00f7fe93          	andi	x29,x15,15
40000270:	057e8e13          	addi	x28,x29,87
40000274:	01dfe463          	bltu	x31,x29,4000027c <tekno_printf+0x118>
40000278:	030e8e13          	addi	x28,x29,48
4000027c:	0046a783          	lw	x15,4(x13) # 20000004 <main-0x1ffffffc>
40000280:	0017f793          	andi	x15,x15,1
40000284:	fe079ce3          	bne	x15,x0,4000027c <tekno_printf+0x118>
40000288:	01c6a623          	sw	x28,12(x13)
4000028c:	ffc30313          	addi	x6,x6,-4
40000290:	fde31ce3          	bne	x6,x30,40000268 <tekno_printf+0x104>
40000294:	00000693          	addi	x13,x0,0
40000298:	00000e13          	addi	x28,x0,0
4000029c:	00000793          	addi	x15,x0,0
400002a0:	f59ff06f          	jal	x0,400001f8 <tekno_printf+0x94>
400002a4:	00812783          	lw	x15,8(x2)
400002a8:	0007a303          	lw	x6,0(x15)
400002ac:	00478793          	addi	x15,x15,4
400002b0:	00f12423          	sw	x15,8(x2)
400002b4:	00034e03          	lbu	x28,0(x6)
400002b8:	fc0e0ee3          	beq	x28,x0,40000294 <tekno_printf+0x130>
400002bc:	200006b7          	lui	x13,0x20000
400002c0:	00130313          	addi	x6,x6,1
400002c4:	0046a783          	lw	x15,4(x13) # 20000004 <main-0x1ffffffc>
400002c8:	0017f793          	andi	x15,x15,1
400002cc:	fe079ce3          	bne	x15,x0,400002c4 <tekno_printf+0x160>
400002d0:	01c6a623          	sw	x28,12(x13)
400002d4:	00034e03          	lbu	x28,0(x6)
400002d8:	fe0e14e3          	bne	x28,x0,400002c0 <tekno_printf+0x15c>
400002dc:	00000693          	addi	x13,x0,0
400002e0:	00000e13          	addi	x28,x0,0
400002e4:	00000793          	addi	x15,x0,0
400002e8:	f11ff06f          	jal	x0,400001f8 <tekno_printf+0x94>
400002ec:	00812783          	lw	x15,8(x2)
400002f0:	00478693          	addi	x13,x15,4
400002f4:	0007a783          	lw	x15,0(x15)
400002f8:	00d12423          	sw	x13,8(x2)
400002fc:	00a00693          	addi	x13,x0,10
40000300:	00078e93          	addi	x29,x15,0
40000304:	02d7c7b3          	div	x15,x15,x13
40000308:	18078063          	beq	x15,x0,40000488 <tekno_printf+0x324>
4000030c:	00100693          	addi	x13,x0,1
40000310:	00a00e13          	addi	x28,x0,10
40000314:	03c7c7b3          	div	x15,x15,x28
40000318:	00068313          	addi	x6,x13,0
4000031c:	00168693          	addi	x13,x13,1
40000320:	fe079ae3          	bne	x15,x0,40000314 <tekno_printf+0x1b0>
40000324:	00a00f13          	addi	x30,x0,10
40000328:	200006b7          	lui	x13,0x20000
4000032c:	fff00f93          	addi	x31,x0,-1
40000330:	03eefe33          	remu	x28,x29,x30
40000334:	030e0e13          	addi	x28,x28,48
40000338:	0046a783          	lw	x15,4(x13) # 20000004 <main-0x1ffffffc>
4000033c:	0017f793          	andi	x15,x15,1
40000340:	fe079ce3          	bne	x15,x0,40000338 <tekno_printf+0x1d4>
40000344:	01c6a623          	sw	x28,12(x13)
40000348:	fff30313          	addi	x6,x6,-1
4000034c:	03eedeb3          	divu	x29,x29,x30
40000350:	fff310e3          	bne	x6,x31,40000330 <tekno_printf+0x1cc>
40000354:	00000693          	addi	x13,x0,0
40000358:	00000e13          	addi	x28,x0,0
4000035c:	00000793          	addi	x15,x0,0
40000360:	e99ff06f          	jal	x0,400001f8 <tekno_printf+0x94>
40000364:	00812783          	lw	x15,8(x2)
40000368:	0007ae03          	lw	x28,0(x15)
4000036c:	00478693          	addi	x13,x15,4
40000370:	00d12423          	sw	x13,8(x2)
40000374:	0e0e4a63          	blt	x28,x0,40000468 <tekno_printf+0x304>
40000378:	00a00693          	addi	x13,x0,10
4000037c:	02de46b3          	div	x13,x28,x13
40000380:	10068863          	beq	x13,x0,40000490 <tekno_printf+0x32c>
40000384:	00100e93          	addi	x29,x0,1
40000388:	00a00313          	addi	x6,x0,10
4000038c:	0266c6b3          	div	x13,x13,x6
40000390:	000e8793          	addi	x15,x29,0
40000394:	001e8e93          	addi	x29,x29,1
40000398:	fe069ae3          	bne	x13,x0,4000038c <tekno_printf+0x228>
4000039c:	00c10f13          	addi	x30,x2,12
400003a0:	00ff07b3          	add	x15,x30,x15
400003a4:	000f0313          	addi	x6,x30,0
400003a8:	00a00f93          	addi	x31,x0,10
400003ac:	03fe66b3          	rem	x13,x28,x31
400003b0:	00078293          	addi	x5,x15,0
400003b4:	fff78793          	addi	x15,x15,-1
400003b8:	03068693          	addi	x13,x13,48
400003bc:	00d780a3          	sb	x13,1(x15)
400003c0:	03fe4e33          	div	x28,x28,x31
400003c4:	fe5f14e3          	bne	x30,x5,400003ac <tekno_printf+0x248>
400003c8:	01df0f33          	add	x30,x30,x29
400003cc:	200006b7          	lui	x13,0x20000
400003d0:	00034e03          	lbu	x28,0(x6)
400003d4:	0046a783          	lw	x15,4(x13) # 20000004 <main-0x1ffffffc>
400003d8:	0017f793          	andi	x15,x15,1
400003dc:	fe079ce3          	bne	x15,x0,400003d4 <tekno_printf+0x270>
400003e0:	01c6a623          	sw	x28,12(x13)
400003e4:	00130313          	addi	x6,x6,1
400003e8:	fe6f14e3          	bne	x30,x6,400003d0 <tekno_printf+0x26c>
400003ec:	00000693          	addi	x13,x0,0
400003f0:	00000e13          	addi	x28,x0,0
400003f4:	00000793          	addi	x15,x0,0
400003f8:	e01ff06f          	jal	x0,400001f8 <tekno_printf+0x94>
400003fc:	00812783          	lw	x15,8(x2)
40000400:	200006b7          	lui	x13,0x20000
40000404:	0007a303          	lw	x6,0(x15)
40000408:	00478793          	addi	x15,x15,4
4000040c:	00f12423          	sw	x15,8(x2)
40000410:	0046a783          	lw	x15,4(x13) # 20000004 <main-0x1ffffffc>
40000414:	0017f793          	andi	x15,x15,1
40000418:	fe079ce3          	bne	x15,x0,40000410 <tekno_printf+0x2ac>
4000041c:	0ff37313          	andi	x6,x6,255
40000420:	0066a623          	sw	x6,12(x13)
40000424:	00000e13          	addi	x28,x0,0
40000428:	00000693          	addi	x13,x0,0
4000042c:	dcdff06f          	jal	x0,400001f8 <tekno_printf+0x94>
40000430:	00d03333          	sltu	x6,x0,x13
40000434:	40600333          	sub	x6,x0,x6
40000438:	fe837313          	andi	x6,x6,-24
4000043c:	0007a283          	lw	x5,0(x15)
40000440:	01d12423          	sw	x29,8(x2)
40000444:	01c30313          	addi	x6,x6,28
40000448:	e15ff06f          	jal	x0,4000025c <tekno_printf+0xf8>
4000044c:	00078e13          	addi	x28,x15,0
40000450:	00000693          	addi	x13,x0,0
40000454:	da5ff06f          	jal	x0,400001f8 <tekno_printf+0x94>
40000458:	00078693          	addi	x13,x15,0
4000045c:	00000e13          	addi	x28,x0,0
40000460:	00000793          	addi	x15,x0,0
40000464:	d95ff06f          	jal	x0,400001f8 <tekno_printf+0x94>
40000468:	41c00e33          	sub	x28,x0,x28
4000046c:	200006b7          	lui	x13,0x20000
40000470:	0046a783          	lw	x15,4(x13) # 20000004 <main-0x1ffffffc>
40000474:	0017f793          	andi	x15,x15,1
40000478:	fe079ce3          	bne	x15,x0,40000470 <tekno_printf+0x30c>
4000047c:	02d00793          	addi	x15,x0,45
40000480:	00f6a623          	sw	x15,12(x13)
40000484:	ef5ff06f          	jal	x0,40000378 <tekno_printf+0x214>
40000488:	00000313          	addi	x6,x0,0
4000048c:	e99ff06f          	jal	x0,40000324 <tekno_printf+0x1c0>
40000490:	00000793          	addi	x15,x0,0
40000494:	00100e93          	addi	x29,x0,1
40000498:	f05ff06f          	jal	x0,4000039c <tekno_printf+0x238>

4000049c <uart_rxempty>:
4000049c:	200007b7          	lui	x15,0x20000
400004a0:	0047a503          	lw	x10,4(x15) # 20000004 <main-0x1ffffffc>
400004a4:	00355513          	srli	x10,x10,0x3
400004a8:	00157513          	andi	x10,x10,1
400004ac:	00008067          	jalr	x0,0(x1)

400004b0 <zgetchar>:
400004b0:	20000737          	lui	x14,0x20000
400004b4:	00472783          	lw	x15,4(x14) # 20000004 <main-0x1ffffffc>
400004b8:	0037d793          	srli	x15,x15,0x3
400004bc:	0017f793          	andi	x15,x15,1
400004c0:	fe079ae3          	bne	x15,x0,400004b4 <zgetchar+0x4>
400004c4:	00872503          	lw	x10,8(x14)
400004c8:	0ff57513          	andi	x10,x10,255
400004cc:	00008067          	jalr	x0,0(x1)

400004d0 <zscan>:
400004d0:	00050313          	addi	x6,x10,0
400004d4:	20000737          	lui	x14,0x20000
400004d8:	00000513          	addi	x10,x0,0
400004dc:	00800893          	addi	x17,x0,8
400004e0:	00d00e13          	addi	x28,x0,13
400004e4:	05e00e93          	addi	x29,x0,94
400004e8:	fff58f13          	addi	x30,x11,-1
400004ec:	00472783          	lw	x15,4(x14) # 20000004 <main-0x1ffffffc>
400004f0:	0037d793          	srli	x15,x15,0x3
400004f4:	0017f793          	andi	x15,x15,1
400004f8:	fe079ae3          	bne	x15,x0,400004ec <zscan+0x1c>
400004fc:	00872583          	lw	x11,8(x14)
40000500:	0ff5f693          	andi	x13,x11,255
40000504:	03168663          	beq	x13,x17,40000530 <zscan+0x60>
40000508:	03c68e63          	beq	x13,x28,40000544 <zscan+0x74>
4000050c:	fe068793          	addi	x15,x13,-32
40000510:	0ff7f793          	andi	x15,x15,255
40000514:	fcfeece3          	bltu	x29,x15,400004ec <zscan+0x1c>
40000518:	fde55ae3          	bge	x10,x30,400004ec <zscan+0x1c>
4000051c:	06061a63          	bne	x12,x0,40000590 <zscan+0xc0>
40000520:	00d30023          	sb	x13,0(x6)
40000524:	00150513          	addi	x10,x10,1
40000528:	00130313          	addi	x6,x6,1
4000052c:	fc1ff06f          	jal	x0,400004ec <zscan+0x1c>
40000530:	fa050ee3          	beq	x10,x0,400004ec <zscan+0x1c>
40000534:	02061863          	bne	x12,x0,40000564 <zscan+0x94>
40000538:	fff30313          	addi	x6,x6,-1
4000053c:	fff50513          	addi	x10,x10,-1
40000540:	fadff06f          	jal	x0,400004ec <zscan+0x1c>
40000544:	00030023          	sb	x0,0(x6)
40000548:	20000737          	lui	x14,0x20000
4000054c:	00472783          	lw	x15,4(x14) # 20000004 <main-0x1ffffffc>
40000550:	0017f793          	andi	x15,x15,1
40000554:	fe079ce3          	bne	x15,x0,4000054c <zscan+0x7c>
40000558:	00a00793          	addi	x15,x0,10
4000055c:	00f72623          	sw	x15,12(x14)
40000560:	00008067          	jalr	x0,0(x1)
40000564:	00000817          	auipc	x16,0x0
40000568:	1bc80813          	addi	x16,x16,444 # 40000720 <strlen+0x14c>
4000056c:	200005b7          	lui	x11,0x20000
40000570:	00180813          	addi	x16,x16,1
40000574:	0045a783          	lw	x15,4(x11) # 20000004 <main-0x1ffffffc>
40000578:	0017f793          	andi	x15,x15,1
4000057c:	fe079ce3          	bne	x15,x0,40000574 <zscan+0xa4>
40000580:	00d5a623          	sw	x13,12(x11)
40000584:	00084683          	lbu	x13,0(x16)
40000588:	fe0694e3          	bne	x13,x0,40000570 <zscan+0xa0>
4000058c:	fadff06f          	jal	x0,40000538 <zscan+0x68>
40000590:	20000837          	lui	x16,0x20000
40000594:	00482783          	lw	x15,4(x16) # 20000004 <main-0x1ffffffc>
40000598:	0017f793          	andi	x15,x15,1
4000059c:	fe079ce3          	bne	x15,x0,40000594 <zscan+0xc4>
400005a0:	0ff5f593          	andi	x11,x11,255
400005a4:	00b82623          	sw	x11,12(x16)
400005a8:	f79ff06f          	jal	x0,40000520 <zscan+0x50>

400005ac <strcmp>:
400005ac:	00054783          	lbu	x15,0(x10)
400005b0:	00158593          	addi	x11,x11,1
400005b4:	00150513          	addi	x10,x10,1
400005b8:	fff5c703          	lbu	x14,-1(x11)
400005bc:	00078863          	beq	x15,x0,400005cc <strcmp+0x20>
400005c0:	fee786e3          	beq	x15,x14,400005ac <strcmp>
400005c4:	40e78533          	sub	x10,x15,x14
400005c8:	00008067          	jalr	x0,0(x1)
400005cc:	40e00533          	sub	x10,x0,x14
400005d0:	00008067          	jalr	x0,0(x1)

400005d4 <strlen>:
400005d4:	00054783          	lbu	x15,0(x10)
400005d8:	00078e63          	beq	x15,x0,400005f4 <strlen+0x20>
400005dc:	00050793          	addi	x15,x10,0
400005e0:	0017c703          	lbu	x14,1(x15)
400005e4:	00178793          	addi	x15,x15,1
400005e8:	fe071ce3          	bne	x14,x0,400005e0 <strlen+0xc>
400005ec:	40a78533          	sub	x10,x15,x10
400005f0:	00008067          	jalr	x0,0(x1)
400005f4:	00000513          	addi	x10,x0,0
400005f8:	00008067          	jalr	x0,0(x1)
